target datalayout = "e-m:e-p270:32:32-p271:32:32-p272:64:64-i64:64-i128:128-f80:128-n8:16:32:64-S128"
target triple = "x86_64-pc-linux-gnu"

%struct.lexbor_mem = type { ptr, ptr, i64, i64 }
%struct.lexbor_mem_chunk = type { ptr, i64, i64, ptr, ptr }

; Function Attrs: nounwind uwtable
define internal i64 @lexbor_mem_align(i64 noundef %0) #0 {
  %2 = alloca i64, align 8
  store i64 %0, ptr %2, align 8
  %3 = load i64, ptr %2, align 8
  %4 = urem i64 %3, 8
  %5 = icmp ne i64 %4, 0
  br i1 %5, label %6, label %12

6:                                                ; preds = %1
  %7 = load i64, ptr %2, align 8
  %8 = load i64, ptr %2, align 8
  %9 = urem i64 %8, 8
  %10 = sub i64 8, %9
  %11 = add i64 %7, %10
  br label %14

12:                                               ; preds = %1
  %13 = load i64, ptr %2, align 8
  br label %14

14:                                               ; preds = %12, %6
  %15 = phi i64 [ %11, %6 ], [ %13, %12 ]
  ret i64 %15
}

; Function Attrs: nounwind uwtable
define hidden ptr @lexbor_mem_chunk_init(ptr noundef %0, ptr noundef %1, i64 noundef %2) #0 {
  %4 = alloca ptr, align 8
  %5 = alloca ptr, align 8
  %6 = alloca i64, align 8
  store ptr %0, ptr %4, align 8
  store ptr %1, ptr %5, align 8
  store i64 %2, ptr %6, align 8
  %7 = load i64, ptr %6, align 8
  %8 = call i64 @lexbor_mem_align(i64 noundef %7)
  store i64 %8, ptr %6, align 8
  %9 = load i64, ptr %6, align 8
  %10 = load ptr, ptr %4, align 8
  %11 = getelementptr inbounds %struct.lexbor_mem, ptr %10, i32 0, i32 2
  %12 = load i64, ptr %11, align 8
  %13 = icmp ugt i64 %9, %12
  br i1 %13, label %14, label %34

14:                                               ; preds = %3
  %15 = load ptr, ptr %4, align 8
  %16 = getelementptr inbounds %struct.lexbor_mem, ptr %15, i32 0, i32 2
  %17 = load i64, ptr %16, align 8
  %18 = load i64, ptr %6, align 8
  %19 = sub i64 -1, %18
  %20 = icmp ugt i64 %17, %19
  br i1 %20, label %21, label %25

21:                                               ; preds = %14
  %22 = load i64, ptr %6, align 8
  %23 = load ptr, ptr %5, align 8
  %24 = getelementptr inbounds %struct.lexbor_mem_chunk, ptr %23, i32 0, i32 2
  store i64 %22, ptr %24, align 8
  br label %33

25:                                               ; preds = %14
  %26 = load i64, ptr %6, align 8
  %27 = load ptr, ptr %4, align 8
  %28 = getelementptr inbounds %struct.lexbor_mem, ptr %27, i32 0, i32 2
  %29 = load i64, ptr %28, align 8
  %30 = add i64 %26, %29
  %31 = load ptr, ptr %5, align 8
  %32 = getelementptr inbounds %struct.lexbor_mem_chunk, ptr %31, i32 0, i32 2
  store i64 %30, ptr %32, align 8
  br label %33

33:                                               ; preds = %25, %21
  br label %40

34:                                               ; preds = %3
  %35 = load ptr, ptr %4, align 8
  %36 = getelementptr inbounds %struct.lexbor_mem, ptr %35, i32 0, i32 2
  %37 = load i64, ptr %36, align 8
  %38 = load ptr, ptr %5, align 8
  %39 = getelementptr inbounds %struct.lexbor_mem_chunk, ptr %38, i32 0, i32 2
  store i64 %37, ptr %39, align 8
  br label %40

40:                                               ; preds = %34, %33
  %41 = load ptr, ptr %5, align 8
  %42 = getelementptr inbounds %struct.lexbor_mem_chunk, ptr %41, i32 0, i32 1
  store i64 0, ptr %42, align 8
  %43 = load ptr, ptr %5, align 8
  %44 = getelementptr inbounds %struct.lexbor_mem_chunk, ptr %43, i32 0, i32 2
  %45 = load i64, ptr %44, align 8
  %46 = mul i64 %45, 1
  %47 = call ptr @lexbor_malloc(i64 noundef %46)
  %48 = load ptr, ptr %5, align 8
  %49 = getelementptr inbounds %struct.lexbor_mem_chunk, ptr %48, i32 0, i32 0
  store ptr %47, ptr %49, align 8
  %50 = load ptr, ptr %5, align 8
  %51 = getelementptr inbounds %struct.lexbor_mem_chunk, ptr %50, i32 0, i32 0
  %52 = load ptr, ptr %51, align 8
  ret ptr %52
}

; Function Attrs: nounwind uwtable
define hidden ptr @lexbor_mem_chunk_make(ptr noundef %0, i64 noundef %1) #0 {
  %3 = alloca ptr, align 8
  %4 = alloca ptr, align 8
  %5 = alloca i64, align 8
  %6 = alloca ptr, align 8
  store ptr %0, ptr %4, align 8
  store i64 %1, ptr %5, align 8
  %7 = call ptr @lexbor_calloc(i64 noundef 1, i64 noundef 40)
  store ptr %7, ptr %6, align 8
  %8 = load ptr, ptr %6, align 8
  %9 = icmp eq ptr %8, null
  br i1 %9, label %10, label %11

10:                                               ; preds = %2
  store ptr null, ptr %3, align 8
  br label %22

11:                                               ; preds = %2
  %12 = load ptr, ptr %4, align 8
  %13 = load ptr, ptr %6, align 8
  %14 = load i64, ptr %5, align 8
  %15 = call ptr @lexbor_mem_chunk_init(ptr noundef %12, ptr noundef %13, i64 noundef %14)
  %16 = icmp eq ptr %15, null
  br i1 %16, label %17, label %20

17:                                               ; preds = %11
  %18 = load ptr, ptr %6, align 8
  %19 = call ptr @lexbor_free(ptr noundef %18)
  store ptr %19, ptr %3, align 8
  br label %22

20:                                               ; preds = %11
  %21 = load ptr, ptr %6, align 8
  store ptr %21, ptr %3, align 8
  br label %22

22:                                               ; preds = %20, %17, %10
  %23 = load ptr, ptr %3, align 8
  ret ptr %23
}