; Function Attrs: nounwind uwtable
define hidden ptr @lexbor_mem_chunk_make(ptr nocapture noundef readonly %0, i64 noundef %1) local_unnamed_addr #0 {
  %3 = tail call ptr @lexbor_calloc(i64 noundef 1, i64 noundef 40) #6
  %4 = icmp eq ptr %3, null
  br i1 %4, label %19, label %5

5:                                                ; preds = %2
  %.biased.i.i = add i64 %1, 7
  %6 = and i64 %.biased.i.i, -8
  %7 = getelementptr inbounds i8, ptr %0, i64 16
  %8 = load i64, ptr %7, align 8
  %9 = icmp ugt i64 %6, %8
  %10 = xor i64 %6, -1
  %11 = icmp ugt i64 %8, %10
  %12 = select i1 %11, i64 0, i64 %8
  %spec.select.i = add i64 %12, %6
  %.sink.i = select i1 %9, i64 %spec.select.i, i64 %8
  %13 = getelementptr inbounds i8, ptr %3, i64 16
  store i64 %.sink.i, ptr %13, align 8
  %14 = getelementptr inbounds i8, ptr %3, i64 8
  store i64 0, ptr %14, align 8
  %15 = tail call ptr @lexbor_malloc(i64 noundef %.sink.i) #6
  store ptr %15, ptr %3, align 8
  %16 = icmp eq ptr %15, null
  br i1 %16, label %17, label %19

17:                                               ; preds = %5
  %18 = tail call ptr @lexbor_free(ptr noundef nonnull %3) #6
  br label %19

19:                                               ; preds = %5, %2, %17
  %.0 = phi ptr [ %18, %17 ], [ null, %2 ], [ %3, %5 ]
  ret ptr %.0
}